target datalayout = "e-m:e-p270:32:32-p271:32:32-p272:64:64-i64:64-i128:128-f80:128-n8:16:32:64-S128"
target triple = "x86_64-pc-linux-gnu"

%struct.Int128_ = type { i64, i64 }
%struct.Int = type { %struct.Int128_, i32 }

; Function Attrs: nounwind uwtable
define dso_local ptr @int_to_str(ptr noundef byval(%struct.Int) align 8 %0, i32 noundef %1) #0 {
  %3 = alloca i32, align 4
  %4 = alloca i32, align 4
  store i32 %1, ptr %4, align 4
  %5 = getelementptr inbounds %struct.Int, ptr %0, i32 0, i32 0
  %6 = load i32, ptr %4, align 4
  %7 = sext i32 %6 to i64
  %8 = getelementptr inbounds %struct.Int, ptr %0, i32 0, i32 1
  %9 = load i32, ptr %8, align 8
  store i32 %9, ptr %3, align 4
  %10 = load i32, ptr %3, align 4
  %11 = icmp uge i32 %10, 3
  br i1 %11, label %12, label %15

12:                                               ; preds = %2
  %13 = load i32, ptr %3, align 4
  %14 = icmp ult i32 %13, 8
  br label %15

15:                                               ; preds = %12, %2
  %16 = phi i1 [ false, %2 ], [ %14, %12 ]
  %17 = getelementptr inbounds { i64, i64 }, ptr %5, i32 0, i32 0
  %18 = load i64, ptr %17, align 8
  %19 = getelementptr inbounds { i64, i64 }, ptr %5, i32 0, i32 1
  %20 = load i64, ptr %19, align 8
  %21 = call ptr @i128_to_string(i64 %18, i64 %20, i64 noundef %7, i1 noundef zeroext %16)
  ret ptr %21
}