; Function Attrs: nounwind uwtable
define dso_local ptr @int_to_str(ptr noundef readonly byval(%struct.Int) align 8 captures(none) %0, i32 noundef %1) local_unnamed_addr #0 {
  %3 = sext i32 %1 to i64
  %4 = getelementptr inbounds nuw i8, ptr %0, i64 16
  %5 = load i32, ptr %4, align 8
  %6 = add i32 %5, -3
  %7 = icmp ult i32 %6, 5
  %8 = load i64, ptr %0, align 8
  %9 = getelementptr inbounds nuw i8, ptr %0, i64 8
  %10 = load i64, ptr %9, align 8
  %11 = tail call ptr @i128_to_string(i64 %8, i64 %10, i64 noundef %3, i1 noundef zeroext %7)
  ret ptr %11
}